; ModuleID = '2/486.c'
source_filename = "2/486.c"
target datalayout = "e-m:e-p270:32:32-p271:32:32-p272:64:64-i64:64-f80:128-n8:16:32:64-S128"
target triple = "x86_64-pc-linux-gnu"

@.str = private unnamed_addr constant [3 x i8] c"%d\00", align 1
@.str.1 = private unnamed_addr constant [3 x i8] c"%c\00", align 1
@.str.2 = private unnamed_addr constant [4 x i8] c"%c\0A\00", align 1
@.str.3 = private unnamed_addr constant [4 x i8] c"%d\0A\00", align 1
@.str.4 = private unnamed_addr constant [2 x i8] c"\0A\00", align 1

; Function Attrs: noinline nounwind uwtable
define dso_local i32 @main() #0 {
  %1 = alloca i32, align 4
  %2 = alloca i32, align 4
  %3 = alloca i32, align 4
  %4 = alloca i32, align 4
  %5 = alloca i32, align 4
  %6 = alloca [28 x i32], align 16
  %7 = alloca i32, align 4
  %8 = alloca i32, align 4
  %9 = alloca i32, align 4
  %10 = alloca i32, align 4
  %11 = alloca i32, align 4
  %12 = alloca i32, align 4
  %13 = alloca i32, align 4
  %14 = alloca i8, align 1
  %15 = alloca [100 x [32 x i8]], align 16
  %16 = alloca i8, align 1
  store i32 0, i32* %1, align 4
  %17 = bitcast [28 x i32]* %6 to i8*
  call void @llvm.memset.p0i8.i64(i8* align 16 %17, i8 0, i64 112, i1 false)
  %18 = call i32 (i8*, ...) @__isoc99_scanf(i8* getelementptr inbounds ([3 x i8], [3 x i8]* @.str, i64 0, i64 0), i32* %7)
  %19 = call i32 (i8*, ...) @__isoc99_scanf(i8* getelementptr inbounds ([3 x i8], [3 x i8]* @.str.1, i64 0, i64 0), i8* %14)
  store i32 1, i32* %12, align 4
  br label %20

20:                                               ; preds = %79, %0
  %21 = load i32, i32* %12, align 4
  %22 = load i32, i32* %7, align 4
  %23 = icmp sle i32 %21, %22
  br i1 %23, label %24, label %82

24:                                               ; preds = %20
  %25 = load i32, i32* %12, align 4
  %26 = sext i32 %25 to i64
  %27 = getelementptr inbounds [100 x [32 x i8]], [100 x [32 x i8]]* %15, i64 0, i64 %26
  %28 = getelementptr inbounds [32 x i8], [32 x i8]* %27, i64 0, i64 0
  %29 = call i32 (i8*, ...) bitcast (i32 (...)* @gets to i32 (i8*, ...)*)(i8* %28)
  store i32 2, i32* %13, align 4
  br label %30

30:                                               ; preds = %75, %24
  %31 = load i32, i32* %12, align 4
  %32 = sext i32 %31 to i64
  %33 = getelementptr inbounds [100 x [32 x i8]], [100 x [32 x i8]]* %15, i64 0, i64 %32
  %34 = load i32, i32* %13, align 4
  %35 = sext i32 %34 to i64
  %36 = getelementptr inbounds [32 x i8], [32 x i8]* %33, i64 0, i64 %35
  %37 = load i8, i8* %36, align 1
  %38 = icmp ne i8 %37, 0
  br i1 %38, label %39, label %78

39:                                               ; preds = %30
  %40 = load i32, i32* %12, align 4
  %41 = sext i32 %40 to i64
  %42 = getelementptr inbounds [100 x [32 x i8]], [100 x [32 x i8]]* %15, i64 0, i64 %41
  %43 = load i32, i32* %13, align 4
  %44 = sext i32 %43 to i64
  %45 = getelementptr inbounds [32 x i8], [32 x i8]* %42, i64 0, i64 %44
  %46 = load i8, i8* %45, align 1
  %47 = sext i8 %46 to i32
  %48 = icmp sge i32 %47, 65
  br i1 %48, label %49, label %74

49:                                               ; preds = %39
  %50 = load i32, i32* %12, align 4
  %51 = sext i32 %50 to i64
  %52 = getelementptr inbounds [100 x [32 x i8]], [100 x [32 x i8]]* %15, i64 0, i64 %51
  %53 = load i32, i32* %13, align 4
  %54 = sext i32 %53 to i64
  %55 = getelementptr inbounds [32 x i8], [32 x i8]* %52, i64 0, i64 %54
  %56 = load i8, i8* %55, align 1
  %57 = sext i8 %56 to i32
  %58 = icmp sle i32 %57, 90
  br i1 %58, label %59, label %74

59:                                               ; preds = %49
  %60 = load i32, i32* %12, align 4
  %61 = sext i32 %60 to i64
  %62 = getelementptr inbounds [100 x [32 x i8]], [100 x [32 x i8]]* %15, i64 0, i64 %61
  %63 = load i32, i32* %13, align 4
  %64 = sext i32 %63 to i64
  %65 = getelementptr inbounds [32 x i8], [32 x i8]* %62, i64 0, i64 %64
  %66 = load i8, i8* %65, align 1
  %67 = sext i8 %66 to i32
  %68 = add nsw i32 %67, 1
  %69 = sub nsw i32 %68, 65
  %70 = sext i32 %69 to i64
  %71 = getelementptr inbounds [28 x i32], [28 x i32]* %6, i64 0, i64 %70
  %72 = load i32, i32* %71, align 4
  %73 = add nsw i32 %72, 1
  store i32 %73, i32* %71, align 4
  br label %74

74:                                               ; preds = %59, %49, %39
  br label %75

75:                                               ; preds = %74
  %76 = load i32, i32* %13, align 4
  %77 = add nsw i32 %76, 1
  store i32 %77, i32* %13, align 4
  br label %30

78:                                               ; preds = %30
  br label %79

79:                                               ; preds = %78
  %80 = load i32, i32* %12, align 4
  %81 = add nsw i32 %80, 1
  store i32 %81, i32* %12, align 4
  br label %20

82:                                               ; preds = %20
  %83 = getelementptr inbounds [28 x i32], [28 x i32]* %6, i64 0, i64 1
  %84 = load i32, i32* %83, align 4
  store i32 %84, i32* %2, align 4
  store i32 1, i32* %3, align 4
  store i32 2, i32* %12, align 4
  br label %85

85:                                               ; preds = %102, %82
  %86 = load i32, i32* %12, align 4
  %87 = icmp sle i32 %86, 26
  br i1 %87, label %88, label %105

88:                                               ; preds = %85
  %89 = load i32, i32* %12, align 4
  %90 = sext i32 %89 to i64
  %91 = getelementptr inbounds [28 x i32], [28 x i32]* %6, i64 0, i64 %90
  %92 = load i32, i32* %91, align 4
  %93 = load i32, i32* %2, align 4
  %94 = icmp sgt i32 %92, %93
  br i1 %94, label %95, label %101

95:                                               ; preds = %88
  %96 = load i32, i32* %12, align 4
  %97 = sext i32 %96 to i64
  %98 = getelementptr inbounds [28 x i32], [28 x i32]* %6, i64 0, i64 %97
  %99 = load i32, i32* %98, align 4
  store i32 %99, i32* %2, align 4
  %100 = load i32, i32* %12, align 4
  store i32 %100, i32* %3, align 4
  br label %101

101:                                              ; preds = %95, %88
  br label %102

102:                                              ; preds = %101
  %103 = load i32, i32* %12, align 4
  %104 = add nsw i32 %103, 1
  store i32 %104, i32* %12, align 4
  br label %85

105:                                              ; preds = %85
  %106 = load i32, i32* %3, align 4
  %107 = add nsw i32 64, %106
  %108 = trunc i32 %107 to i8
  store i8 %108, i8* %16, align 1
  %109 = load i8, i8* %16, align 1
  %110 = sext i8 %109 to i32
  %111 = call i32 (i8*, ...) @printf(i8* getelementptr inbounds ([4 x i8], [4 x i8]* @.str.2, i64 0, i64 0), i32 %110)
  %112 = load i32, i32* %2, align 4
  %113 = call i32 (i8*, ...) @printf(i8* getelementptr inbounds ([4 x i8], [4 x i8]* @.str.3, i64 0, i64 0), i32 %112)
  store i32 1, i32* %12, align 4
  br label %114

114:                                              ; preds = %182, %105
  %115 = load i32, i32* %12, align 4
  %116 = load i32, i32* %7, align 4
  %117 = icmp sle i32 %115, %116
  br i1 %117, label %118, label %185

118:                                              ; preds = %114
  store i32 2, i32* %13, align 4
  br label %119

119:                                              ; preds = %178, %118
  %120 = load i32, i32* %12, align 4
  %121 = sext i32 %120 to i64
  %122 = getelementptr inbounds [100 x [32 x i8]], [100 x [32 x i8]]* %15, i64 0, i64 %121
  %123 = load i32, i32* %13, align 4
  %124 = sext i32 %123 to i64
  %125 = getelementptr inbounds [32 x i8], [32 x i8]* %122, i64 0, i64 %124
  %126 = load i8, i8* %125, align 1
  %127 = icmp ne i8 %126, 0
  br i1 %127, label %128, label %181

128:                                              ; preds = %119
  %129 = load i32, i32* %12, align 4
  %130 = sext i32 %129 to i64
  %131 = getelementptr inbounds [100 x [32 x i8]], [100 x [32 x i8]]* %15, i64 0, i64 %130
  %132 = load i32, i32* %13, align 4
  %133 = sext i32 %132 to i64
  %134 = getelementptr inbounds [32 x i8], [32 x i8]* %131, i64 0, i64 %133
  %135 = load i8, i8* %134, align 1
  %136 = sext i8 %135 to i32
  %137 = load i8, i8* %16, align 1
  %138 = sext i8 %137 to i32
  %139 = icmp eq i32 %136, %138
  br i1 %139, label %140, label %177

140:                                              ; preds = %128
  store i32 0, i32* %4, align 4
  br label %141

141:                                              ; preds = %172, %140
  %142 = load i32, i32* %12, align 4
  %143 = sext i32 %142 to i64
  %144 = getelementptr inbounds [100 x [32 x i8]], [100 x [32 x i8]]* %15, i64 0, i64 %143
  %145 = load i32, i32* %4, align 4
  %146 = sext i32 %145 to i64
  %147 = getelementptr inbounds [32 x i8], [32 x i8]* %144, i64 0, i64 %146
  %148 = load i8, i8* %147, align 1
  %149 = icmp ne i8 %148, 0
  br i1 %149, label %150, label %175

150:                                              ; preds = %141
  %151 = load i32, i32* %12, align 4
  %152 = sext i32 %151 to i64
  %153 = getelementptr inbounds [100 x [32 x i8]], [100 x [32 x i8]]* %15, i64 0, i64 %152
  %154 = load i32, i32* %4, align 4
  %155 = sext i32 %154 to i64
  %156 = getelementptr inbounds [32 x i8], [32 x i8]* %153, i64 0, i64 %155
  %157 = load i8, i8* %156, align 1
  %158 = sext i8 %157 to i32
  %159 = icmp eq i32 %158, 32
  br i1 %159, label %160, label %161

160:                                              ; preds = %150
  br label %175

161:                                              ; preds = %150
  %162 = load i32, i32* %12, align 4
  %163 = sext i32 %162 to i64
  %164 = getelementptr inbounds [100 x [32 x i8]], [100 x [32 x i8]]* %15, i64 0, i64 %163
  %165 = load i32, i32* %4, align 4
  %166 = sext i32 %165 to i64
  %167 = getelementptr inbounds [32 x i8], [32 x i8]* %164, i64 0, i64 %166
  %168 = load i8, i8* %167, align 1
  %169 = sext i8 %168 to i32
  %170 = call i32 (i8*, ...) @printf(i8* getelementptr inbounds ([3 x i8], [3 x i8]* @.str.1, i64 0, i64 0), i32 %169)
  br label %171

171:                                              ; preds = %161
  br label %172

172:                                              ; preds = %171
  %173 = load i32, i32* %4, align 4
  %174 = add nsw i32 %173, 1
  store i32 %174, i32* %4, align 4
  br label %141

175:                                              ; preds = %160, %141
  %176 = call i32 (i8*, ...) @printf(i8* getelementptr inbounds ([2 x i8], [2 x i8]* @.str.4, i64 0, i64 0))
  br label %181

177:                                              ; preds = %128
  br label %178

178:                                              ; preds = %177
  %179 = load i32, i32* %13, align 4
  %180 = add nsw i32 %179, 1
  store i32 %180, i32* %13, align 4
  br label %119

181:                                              ; preds = %175, %119
  br label %182

182:                                              ; preds = %181
  %183 = load i32, i32* %12, align 4
  %184 = add nsw i32 %183, 1
  store i32 %184, i32* %12, align 4
  br label %114

185:                                              ; preds = %114
  %186 = load i32, i32* %1, align 4
  ret i32 %186
}

; Function Attrs: argmemonly nounwind willreturn
declare void @llvm.memset.p0i8.i64(i8* nocapture writeonly, i8, i64, i1 immarg) #1

declare dso_local i32 @__isoc99_scanf(i8*, ...) #2

declare dso_local i32 @gets(...) #2

declare dso_local i32 @printf(i8*, ...) #2


!llvm.module.flags = !{!0}
!llvm.ident = !{!1}

!0 = !{i32 1, !"wchar_size", i32 4}
!1 = !{!"clang version 10.0.0-4ubuntu1 "}
